   1              	  .syntax unified
   2              	  .cpu cortex-m0plus
   3              	  .thumb
   4              	
   5              	//------------------------------------------------------------------------------
   6              	//   INTERRUPT - SECTION: SysTick
   7              	//------------------------------------------------------------------------------
   8              	
   9              	  .section .text.interrupt.SysTick, "ax", %progbits
  10              	
  11              	  .align  1
  12              	  .global interrupt.SysTick
  13              	  .type interrupt.SysTick, %function
  14              	
  15              	interrupt.SysTick:
  16              	//----------------------------------------- Activity led On
  17 0000 0148     	  ldr   r0, =0xD0000000 + 0x014  // Address of SIO_GPIO_OUT_SET control register
  18 0002 0249     	  ldr   r1, = (1 << 26)   // Port GP26 is ACTIVITY 0
  19 0004 0160     	  str   r1, [r0]         // turn on
  20              	//----------------------------------------- Goto interrupt function
  21 0006 FEE7     	  b     interrupt.section.SysTick
  22              	
  23              	//------------------------------------------------------------------------------
  24              	//   INTERRUPT - UNUSED: ADC_IRQ_FIFO
  25              	//------------------------------------------------------------------------------
  26              	
  27              	  .section .text.interrupt.ADC_IRQ_FIFO, "ax", %progbits
  28              	
  29              	  .align  1
  30              	  .type interrupt.ADC_IRQ_FIFO, %function
  31              	  .global interrupt.ADC_IRQ_FIFO
  32              	
  33              	interrupt.ADC_IRQ_FIFO:
  34 0000 2620     	  movs r0, #38
  35 0002 FEE7     	  b    unused.interrupt
  36              	
  37              	//------------------------------------------------------------------------------
  38              	//   INTERRUPT - UNUSED: BusFault
  39              	//------------------------------------------------------------------------------
  40              	
  41              	  .section .text.interrupt.BusFault, "ax", %progbits
  42              	
  43              	  .align  1
  44              	  .type interrupt.BusFault, %function
  45              	  .global interrupt.BusFault
  46              	
  47              	interrupt.BusFault:
  48 0000 0520     	  movs r0, #5
  49 0002 FEE7     	  b    unused.interrupt
  50              	
  51              	//------------------------------------------------------------------------------
  52              	//   INTERRUPT - UNUSED: MemManage
  53              	//------------------------------------------------------------------------------
  54              	
  55              	  .section .text.interrupt.MemManage, "ax", %progbits
  56              	
  57              	  .align  1
  58              	  .type interrupt.MemManage, %function
  59              	  .global interrupt.MemManage
  60              	
  61              	interrupt.MemManage:
  62 0000 0420     	  movs r0, #4
  63 0002 FEE7     	  b    unused.interrupt
  64              	
  65              	//------------------------------------------------------------------------------
  66              	//   INTERRUPT - UNUSED: TIMER_IRQ_2
  67              	//------------------------------------------------------------------------------
  68              	
  69              	  .section .text.interrupt.TIMER_IRQ_2, "ax", %progbits
  70              	
  71              	  .align  1
  72              	  .type interrupt.TIMER_IRQ_2, %function
  73              	  .global interrupt.TIMER_IRQ_2
  74              	
  75              	interrupt.TIMER_IRQ_2:
  76 0000 1220     	  movs r0, #18
  77 0002 FEE7     	  b    unused.interrupt
  78              	
  79              	//------------------------------------------------------------------------------
  80              	//   INTERRUPT - UNUSED: TIMER_IRQ_3
  81              	//------------------------------------------------------------------------------
  82              	
  83              	  .section .text.interrupt.TIMER_IRQ_3, "ax", %progbits
  84              	
  85              	  .align  1
  86              	  .type interrupt.TIMER_IRQ_3, %function
  87              	  .global interrupt.TIMER_IRQ_3
  88              	
  89              	interrupt.TIMER_IRQ_3:
  90 0000 1320     	  movs r0, #19
  91 0002 FEE7     	  b    unused.interrupt
  92              	
  93              	//------------------------------------------------------------------------------
  94              	//   INTERRUPT - UNUSED: TIMER_IRQ_0
  95              	//------------------------------------------------------------------------------
  96              	
  97              	  .section .text.interrupt.TIMER_IRQ_0, "ax", %progbits
  98              	
  99              	  .align  1
 100              	  .type interrupt.TIMER_IRQ_0, %function
 101              	  .global interrupt.TIMER_IRQ_0
 102              	
 103              	interrupt.TIMER_IRQ_0:
 104 0000 1020     	  movs r0, #16
 105 0002 FEE7     	  b    unused.interrupt
 106              	
 107              	//------------------------------------------------------------------------------
 108              	//   INTERRUPT - UNUSED: TIMER_IRQ_1
 109              	//------------------------------------------------------------------------------
 110              	
 111              	  .section .text.interrupt.TIMER_IRQ_1, "ax", %progbits
 112              	
 113              	  .align  1
 114              	  .type interrupt.TIMER_IRQ_1, %function
 115              	  .global interrupt.TIMER_IRQ_1
 116              	
 117              	interrupt.TIMER_IRQ_1:
 118 0000 1120     	  movs r0, #17
 119 0002 FEE7     	  b    unused.interrupt
 120              	
 121              	//------------------------------------------------------------------------------
 122              	//   INTERRUPT - UNUSED: SIO_IRQ_PROC0
 123              	//------------------------------------------------------------------------------
 124              	
 125              	  .section .text.interrupt.SIO_IRQ_PROC0, "ax", %progbits
 126              	
 127              	  .align  1
 128              	  .type interrupt.SIO_IRQ_PROC0, %function
 129              	  .global interrupt.SIO_IRQ_PROC0
 130              	
 131              	interrupt.SIO_IRQ_PROC0:
 132 0000 1F20     	  movs r0, #31
 133 0002 FEE7     	  b    unused.interrupt
 134              	
 135              	//------------------------------------------------------------------------------
 136              	//   INTERRUPT - UNUSED: SIO_IRQ_PROC1
 137              	//------------------------------------------------------------------------------
 138              	
 139              	  .section .text.interrupt.SIO_IRQ_PROC1, "ax", %progbits
 140              	
 141              	  .align  1
 142              	  .type interrupt.SIO_IRQ_PROC1, %function
 143              	  .global interrupt.SIO_IRQ_PROC1
 144              	
 145              	interrupt.SIO_IRQ_PROC1:
 146 0000 2020     	  movs r0, #32
 147 0002 FEE7     	  b    unused.interrupt
 148              	
 149              	//------------------------------------------------------------------------------
 150              	//   INTERRUPT - UNUSED: USBCTRL_IRQ
 151              	//------------------------------------------------------------------------------
 152              	
 153              	  .section .text.interrupt.USBCTRL_IRQ, "ax", %progbits
 154              	
 155              	  .align  1
 156              	  .type interrupt.USBCTRL_IRQ, %function
 157              	  .global interrupt.USBCTRL_IRQ
 158              	
 159              	interrupt.USBCTRL_IRQ:
 160 0000 1520     	  movs r0, #21
 161 0002 FEE7     	  b    unused.interrupt
 162              	
 163              	//------------------------------------------------------------------------------
 164              	//   INTERRUPT - UNUSED: PIO1_IRQ_1
 165              	//------------------------------------------------------------------------------
 166              	
 167              	  .section .text.interrupt.PIO1_IRQ_1, "ax", %progbits
 168              	
 169              	  .align  1
 170              	  .type interrupt.PIO1_IRQ_1, %function
 171              	  .global interrupt.PIO1_IRQ_1
 172              	
 173              	interrupt.PIO1_IRQ_1:
 174 0000 1A20     	  movs r0, #26
 175 0002 FEE7     	  b    unused.interrupt
 176              	
 177              	//------------------------------------------------------------------------------
 178              	//   INTERRUPT - UNUSED: DebugMonitor
 179              	//------------------------------------------------------------------------------
 180              	
 181              	  .section .text.interrupt.DebugMonitor, "ax", %progbits
 182              	
 183              	  .align  1
 184              	  .type interrupt.DebugMonitor, %function
 185              	  .global interrupt.DebugMonitor
 186              	
 187              	interrupt.DebugMonitor:
 188 0000 0C20     	  movs r0, #12
 189 0002 FEE7     	  b    unused.interrupt
 190              	
 191              	//------------------------------------------------------------------------------
 192              	//   INTERRUPT - UNUSED: HardFault
 193              	//------------------------------------------------------------------------------
 194              	
 195              	  .section .text.interrupt.HardFault, "ax", %progbits
 196              	
 197              	  .align  1
 198              	  .type interrupt.HardFault, %function
 199              	  .global interrupt.HardFault
 200              	
 201              	interrupt.HardFault:
 202 0000 0320     	  movs r0, #3
 203 0002 FEE7     	  b    unused.interrupt
 204              	
 205              	//------------------------------------------------------------------------------
 206              	//   INTERRUPT - UNUSED: RTC_IRQ
 207              	//------------------------------------------------------------------------------
 208              	
 209              	  .section .text.interrupt.RTC_IRQ, "ax", %progbits
 210              	
 211              	  .align  1
 212              	  .type interrupt.RTC_IRQ, %function
 213              	  .global interrupt.RTC_IRQ
 214              	
 215              	interrupt.RTC_IRQ:
 216 0000 2920     	  movs r0, #41
 217 0002 FEE7     	  b    unused.interrupt
 218              	
 219              	//------------------------------------------------------------------------------
 220              	//   INTERRUPT - UNUSED: SPI0_IRQ
 221              	//------------------------------------------------------------------------------
 222              	
 223              	  .section .text.interrupt.SPI0_IRQ, "ax", %progbits
 224              	
 225              	  .align  1
 226              	  .type interrupt.SPI0_IRQ, %function
 227              	  .global interrupt.SPI0_IRQ
 228              	
 229              	interrupt.SPI0_IRQ:
 230 0000 2220     	  movs r0, #34
 231 0002 FEE7     	  b    unused.interrupt
 232              	
 233              	//------------------------------------------------------------------------------
 234              	//   INTERRUPT - UNUSED: IO_IRQ_BANK0
 235              	//------------------------------------------------------------------------------
 236              	
 237              	  .section .text.interrupt.IO_IRQ_BANK0, "ax", %progbits
 238              	
 239              	  .align  1
 240              	  .type interrupt.IO_IRQ_BANK0, %function
 241              	  .global interrupt.IO_IRQ_BANK0
 242              	
 243              	interrupt.IO_IRQ_BANK0:
 244 0000 1D20     	  movs r0, #29
 245 0002 FEE7     	  b    unused.interrupt
 246              	
 247              	//------------------------------------------------------------------------------
 248              	//   INTERRUPT - UNUSED: I2C0_IRQ
 249              	//------------------------------------------------------------------------------
 250              	
 251              	  .section .text.interrupt.I2C0_IRQ, "ax", %progbits
 252              	
 253              	  .align  1
 254              	  .type interrupt.I2C0_IRQ, %function
 255              	  .global interrupt.I2C0_IRQ
 256              	
 257              	interrupt.I2C0_IRQ:
 258 0000 2720     	  movs r0, #39
 259 0002 FEE7     	  b    unused.interrupt
 260              	
 261              	//------------------------------------------------------------------------------
 262              	//   INTERRUPT - UNUSED: IO_IRQ_QSPI
 263              	//------------------------------------------------------------------------------
 264              	
 265              	  .section .text.interrupt.IO_IRQ_QSPI, "ax", %progbits
 266              	
 267              	  .align  1
 268              	  .type interrupt.IO_IRQ_QSPI, %function
 269              	  .global interrupt.IO_IRQ_QSPI
 270              	
 271              	interrupt.IO_IRQ_QSPI:
 272 0000 1E20     	  movs r0, #30
 273 0002 FEE7     	  b    unused.interrupt
 274              	
 275              	//------------------------------------------------------------------------------
 276              	//   INTERRUPT - UNUSED: XIP_IRQ
 277              	//------------------------------------------------------------------------------
 278              	
 279              	  .section .text.interrupt.XIP_IRQ, "ax", %progbits
 280              	
 281              	  .align  1
 282              	  .type interrupt.XIP_IRQ, %function
 283              	  .global interrupt.XIP_IRQ
 284              	
 285              	interrupt.XIP_IRQ:
 286 0000 1620     	  movs r0, #22
 287 0002 FEE7     	  b    unused.interrupt
 288              	
 289              	//------------------------------------------------------------------------------
 290              	//   INTERRUPT - UNUSED: UART1_IRQ
 291              	//------------------------------------------------------------------------------
 292              	
 293              	  .section .text.interrupt.UART1_IRQ, "ax", %progbits
 294              	
 295              	  .align  1
 296              	  .type interrupt.UART1_IRQ, %function
 297              	  .global interrupt.UART1_IRQ
 298              	
 299              	interrupt.UART1_IRQ:
 300 0000 2520     	  movs r0, #37
 301 0002 FEE7     	  b    unused.interrupt
 302              	
 303              	//------------------------------------------------------------------------------
 304              	//   INTERRUPT - UNUSED: PIO1_IRQ_0
 305              	//------------------------------------------------------------------------------
 306              	
 307              	  .section .text.interrupt.PIO1_IRQ_0, "ax", %progbits
 308              	
 309              	  .align  1
 310              	  .type interrupt.PIO1_IRQ_0, %function
 311              	  .global interrupt.PIO1_IRQ_0
 312              	
 313              	interrupt.PIO1_IRQ_0:
 314 0000 1920     	  movs r0, #25
 315 0002 FEE7     	  b    unused.interrupt
 316              	
 317              	//------------------------------------------------------------------------------
 318              	//   INTERRUPT - UNUSED: PIO0_IRQ_0
 319              	//------------------------------------------------------------------------------
 320              	
 321              	  .section .text.interrupt.PIO0_IRQ_0, "ax", %progbits
 322              	
 323              	  .align  1
 324              	  .type interrupt.PIO0_IRQ_0, %function
 325              	  .global interrupt.PIO0_IRQ_0
 326              	
 327              	interrupt.PIO0_IRQ_0:
 328 0000 1720     	  movs r0, #23
 329 0002 FEE7     	  b    unused.interrupt
 330              	
 331              	//------------------------------------------------------------------------------
 332              	//   INTERRUPT - UNUSED: PIO0_IRQ_1
 333              	//------------------------------------------------------------------------------
 334              	
 335              	  .section .text.interrupt.PIO0_IRQ_1, "ax", %progbits
 336              	
 337              	  .align  1
 338              	  .type interrupt.PIO0_IRQ_1, %function
 339              	  .global interrupt.PIO0_IRQ_1
 340              	
 341              	interrupt.PIO0_IRQ_1:
 342 0000 1820     	  movs r0, #24
 343 0002 FEE7     	  b    unused.interrupt
 344              	
 345              	//------------------------------------------------------------------------------
 346              	//   INTERRUPT - UNUSED: SVC
 347              	//------------------------------------------------------------------------------
 348              	
 349              	  .section .text.interrupt.SVC, "ax", %progbits
 350              	
 351              	  .align  1
 352              	  .type interrupt.SVC, %function
 353              	  .global interrupt.SVC
 354              	
 355              	interrupt.SVC:
 356 0000 0B20     	  movs r0, #11
 357 0002 FEE7     	  b    unused.interrupt
 358              	
 359              	//------------------------------------------------------------------------------
 360              	//   INTERRUPT - UNUSED: UsageFault
 361              	//------------------------------------------------------------------------------
 362              	
 363              	  .section .text.interrupt.UsageFault, "ax", %progbits
 364              	
 365              	  .align  1
 366              	  .type interrupt.UsageFault, %function
 367              	  .global interrupt.UsageFault
 368              	
 369              	interrupt.UsageFault:
 370 0000 0620     	  movs r0, #6
 371 0002 FEE7     	  b    unused.interrupt
 372              	
 373              	//------------------------------------------------------------------------------
 374              	//   INTERRUPT - UNUSED: PendSV
 375              	//------------------------------------------------------------------------------
 376              	
 377              	  .section .text.interrupt.PendSV, "ax", %progbits
 378              	
 379              	  .align  1
 380              	  .type interrupt.PendSV, %function
 381              	  .global interrupt.PendSV
 382              	
 383              	interrupt.PendSV:
 384 0000 0E20     	  movs r0, #14
 385 0002 FEE7     	  b    unused.interrupt
 386              	
 387              	//------------------------------------------------------------------------------
 388              	//   INTERRUPT - UNUSED: CLOCKS_IRQ
 389              	//------------------------------------------------------------------------------
 390              	
 391              	  .section .text.interrupt.CLOCKS_IRQ, "ax", %progbits
 392              	
 393              	  .align  1
 394              	  .type interrupt.CLOCKS_IRQ, %function
 395              	  .global interrupt.CLOCKS_IRQ
 396              	
 397              	interrupt.CLOCKS_IRQ:
 398 0000 2120     	  movs r0, #33
 399 0002 FEE7     	  b    unused.interrupt
 400              	
 401              	//------------------------------------------------------------------------------
 402              	//   INTERRUPT - UNUSED: UART0_IRQ
 403              	//------------------------------------------------------------------------------
 404              	
 405              	  .section .text.interrupt.UART0_IRQ, "ax", %progbits
 406              	
 407              	  .align  1
 408              	  .type interrupt.UART0_IRQ, %function
 409              	  .global interrupt.UART0_IRQ
 410              	
 411              	interrupt.UART0_IRQ:
 412 0000 2420     	  movs r0, #36
 413 0002 FEE7     	  b    unused.interrupt
 414              	
 415              	//------------------------------------------------------------------------------
 416              	//   INTERRUPT - UNUSED: DMA_IRQ_1
 417              	//------------------------------------------------------------------------------
 418              	
 419              	  .section .text.interrupt.DMA_IRQ_1, "ax", %progbits
 420              	
 421              	  .align  1
 422              	  .type interrupt.DMA_IRQ_1, %function
 423              	  .global interrupt.DMA_IRQ_1
 424              	
 425              	interrupt.DMA_IRQ_1:
 426 0000 1C20     	  movs r0, #28
 427 0002 FEE7     	  b    unused.interrupt
 428              	
 429              	//------------------------------------------------------------------------------
 430              	//   INTERRUPT - UNUSED: DMA_IRQ_0
 431              	//------------------------------------------------------------------------------
 432              	
 433              	  .section .text.interrupt.DMA_IRQ_0, "ax", %progbits
 434              	
 435              	  .align  1
 436              	  .type interrupt.DMA_IRQ_0, %function
 437              	  .global interrupt.DMA_IRQ_0
 438              	
 439              	interrupt.DMA_IRQ_0:
 440 0000 1B20     	  movs r0, #27
 441 0002 FEE7     	  b    unused.interrupt
 442              	
 443              	//------------------------------------------------------------------------------
 444              	//   INTERRUPT - UNUSED: I2C1_IRQ
 445              	//------------------------------------------------------------------------------
 446              	
 447              	  .section .text.interrupt.I2C1_IRQ, "ax", %progbits
 448              	
 449              	  .align  1
 450              	  .type interrupt.I2C1_IRQ, %function
 451              	  .global interrupt.I2C1_IRQ
 452              	
 453              	interrupt.I2C1_IRQ:
 454 0000 2820     	  movs r0, #40
 455 0002 FEE7     	  b    unused.interrupt
 456              	
 457              	//------------------------------------------------------------------------------
 458              	//   INTERRUPT - UNUSED: SPI1_IRQ
 459              	//------------------------------------------------------------------------------
 460              	
 461              	  .section .text.interrupt.SPI1_IRQ, "ax", %progbits
 462              	
 463              	  .align  1
 464              	  .type interrupt.SPI1_IRQ, %function
 465              	  .global interrupt.SPI1_IRQ
 466              	
 467              	interrupt.SPI1_IRQ:
 468 0000 2320     	  movs r0, #35
 469 0002 FEE7     	  b    unused.interrupt
 470              	
 471              	//------------------------------------------------------------------------------
 472              	//   INTERRUPT - UNUSED: PWM_IRQ_WRAP
 473              	//------------------------------------------------------------------------------
 474              	
 475              	  .section .text.interrupt.PWM_IRQ_WRAP, "ax", %progbits
 476              	
 477              	  .align  1
 478              	  .type interrupt.PWM_IRQ_WRAP, %function
 479              	  .global interrupt.PWM_IRQ_WRAP
 480              	
 481              	interrupt.PWM_IRQ_WRAP:
 482 0000 1420     	  movs r0, #20
 483 0002 FEE7     	  b    unused.interrupt
 484              	
 485              	//------------------------------------------------------------------------------
 486              	//   INTERRUPT - UNUSED: NMI
 487              	//------------------------------------------------------------------------------
 488              	
 489              	  .section .text.interrupt.NMI, "ax", %progbits
 490              	
 491              	  .align  1
 492              	  .type interrupt.NMI, %function
 493              	  .global interrupt.NMI
 494              	
 495              	interrupt.NMI:
 496 0000 0220     	  movs r0, #2
 497 0002 FEE7     	  b    unused.interrupt
 498              	
 499              	//------------------------------------------------------------------------------
