   1              		.cpu cortex-m0plus
   2              		.eabi_attribute 20, 1
   3              		.eabi_attribute 21, 1
   4              		.eabi_attribute 23, 3
   5              		.eabi_attribute 24, 1
   6              		.eabi_attribute 25, 1
   7              		.eabi_attribute 26, 1
   8              		.eabi_attribute 30, 4
   9              		.eabi_attribute 34, 0
  10              		.eabi_attribute 18, 4
  11              		.file	"time.cpp"
  12              		.section	.text._ZL12startSystickv,"ax",%progbits
  13              		.align	1
  14              		.syntax unified
  15              		.code	16
  16              		.thumb_func
  17              		.fpu softvfp
  18              		.type	_ZL12startSystickv, %function
  19              	_ZL12startSystickv:
  20              		@ args = 0, pretend = 0, frame = 0
  21              		@ frame_needed = 0, uses_anonymous_args = 0
  22              		@ link register save eliminated.
  23 0000 034B     		ldr	r3, .L2
  24 0002 044A     		ldr	r2, .L2+4
  25              		@ sp needed
  26 0004 5A60     		str	r2, [r3, #4]
  27 0006 0022     		movs	r2, #0
  28 0008 9A60     		str	r2, [r3, #8]
  29 000a 0532     		adds	r2, r2, #5
  30 000c 1A60     		str	r2, [r3]
  31 000e 7047     		bx	lr
  32              	.L3:
  33              		.align	2
  34              	.L2:
  35 0010 10E000E0 		.word	-536813552
  36 0014 A7610000 		.word	24999
  37              		.size	_ZL12startSystickv, .-_ZL12startSystickv
  38              		.section	.text._ZL24activateSystickInterruptv,"ax",%progbits
  39              		.align	1
  40              		.syntax unified
  41              		.code	16
  42              		.thumb_func
  43              		.fpu softvfp
  44              		.type	_ZL24activateSystickInterruptv, %function
  45              	_ZL24activateSystickInterruptv:
  46              		@ args = 0, pretend = 0, frame = 0
  47              		@ frame_needed = 0, uses_anonymous_args = 0
  48              		@ link register save eliminated.
  49 0000 0223     		movs	r3, #2
  50 0002 024A     		ldr	r2, .L5
  51              		@ sp needed
  52 0004 1168     		ldr	r1, [r2]
  53 0006 0B43     		orrs	r3, r1
  54 0008 1360     		str	r3, [r2]
  55 000a 7047     		bx	lr
  56              	.L6:
  57              		.align	2
  58              	.L5:
  59 000c 10E000E0 		.word	-536813552
  60              		.size	_ZL24activateSystickInterruptv, .-_ZL24activateSystickInterruptv
  61              		.section	.text._Z19systick_current_cpuv,"ax",%progbits
  62              		.align	1
  63              		.global	_Z19systick_current_cpuv
  64              		.syntax unified
  65              		.code	16
  66              		.thumb_func
  67              		.fpu softvfp
  68              		.type	_Z19systick_current_cpuv, %function
  69              	_Z19systick_current_cpuv:
  70              		@ args = 0, pretend = 0, frame = 0
  71              		@ frame_needed = 0, uses_anonymous_args = 0
  72              		@ link register save eliminated.
  73 0000 014B     		ldr	r3, .L8
  74              		@ sp needed
  75 0002 9868     		ldr	r0, [r3, #8]
  76 0004 7047     		bx	lr
  77              	.L9:
  78 0006 C046     		.align	2
  79              	.L8:
  80 0008 10E000E0 		.word	-536813552
  81              		.size	_Z19systick_current_cpuv, .-_Z19systick_current_cpuv
  82              		.section	.text._Z23busyWaitDuring_initModem,"ax",%progbits
  83              		.align	1
  84              		.global	_Z23busyWaitDuring_initModem
  85              		.syntax unified
  86              		.code	16
  87              		.thumb_func
  88              		.fpu softvfp
  89              		.type	_Z23busyWaitDuring_initModem, %function
  90              	_Z23busyWaitDuring_initModem:
  91              		@ args = 0, pretend = 0, frame = 0
  92              		@ frame_needed = 0, uses_anonymous_args = 0
  93 0000 8021     		movs	r1, #128
  94 0002 0023     		movs	r3, #0
  95 0004 10B5     		push	{r4, lr}
  96 0006 054A     		ldr	r2, .L16
  97 0008 4902     		lsls	r1, r1, #9
  98              	.L13:
  99 000a 8342     		cmp	r3, r0
 100 000c 04D0     		beq	.L10
 101              	.L12:
 102 000e 1468     		ldr	r4, [r2]
 103 0010 0C42     		tst	r4, r1
 104 0012 FCD0     		beq	.L12
 105 0014 0133     		adds	r3, r3, #1
 106 0016 F8E7     		b	.L13
 107              	.L10:
 108              		@ sp needed
 109 0018 10BD     		pop	{r4, pc}
 110              	.L17:
 111 001a C046     		.align	2
 112              	.L16:
 113 001c 10E000E0 		.word	-536813552
 114              		.size	_Z23busyWaitDuring_initModem, .-_Z23busyWaitDuring_initModem
 115              		.section	.text.interrupt.section.SysTick,"ax",%progbits
 116              		.align	1
 117              		.global	interrupt.section.SysTick
 118              		.syntax unified
 119              		.code	16
 120              		.thumb_func
 121              		.fpu softvfp
 122              		.type	interrupt.section.SysTick, %function
 123              	interrupt.section.SysTick:
 124              		@ args = 0, pretend = 0, frame = 0
 125              		@ frame_needed = 0, uses_anonymous_args = 0
 126 0000 F8B5     		push	{r3, r4, r5, r6, r7, lr}
 127 0002 0A4B     		ldr	r3, .L21
 128 0004 0A4E     		ldr	r6, .L21+4
 129 0006 1D68     		ldr	r5, [r3]
 130 0008 0A4C     		ldr	r4, .L21+8
 131 000a 0135     		adds	r5, r5, #1
 132 000c 1D60     		str	r5, [r3]
 133 000e 0023     		movs	r3, #0
 134 0010 A41B     		subs	r4, r4, r6
 135 0012 A408     		lsrs	r4, r4, #2
 136 0014 0134     		adds	r4, r4, #1
 137 0016 A400     		lsls	r4, r4, #2
 138              	.L20:
 139 0018 1F1D     		adds	r7, r3, #4
 140 001a A742     		cmp	r7, r4
 141 001c 04D0     		beq	.L18
 142 001e F358     		ldr	r3, [r6, r3]
 143 0020 2800     		movs	r0, r5
 144 0022 9847     		blx	r3
 145 0024 3B00     		movs	r3, r7
 146 0026 F7E7     		b	.L20
 147              	.L18:
 148              		@ sp needed
 149 0028 F8BD     		pop	{r3, r4, r5, r6, r7, pc}
 150              	.L22:
 151 002a C046     		.align	2
 152              	.L21:
 153 002c 00000000 		.word	.LANCHOR0
 154 0030 00000000 		.word	__real_time_interrupt_routine_array_start
 155 0034 00000000 		.word	__real_time_interrupt_routine_array_end
 156              		.size	interrupt.section.SysTick, .-interrupt.section.SysTick
 157              		.section	.text._Z6millisv,"ax",%progbits
 158              		.align	1
 159              		.global	_Z6millisv
 160              		.syntax unified
 161              		.code	16
 162              		.thumb_func
 163              		.fpu softvfp
 164              		.type	_Z6millisv, %function
 165              	_Z6millisv:
 166              		@ args = 0, pretend = 0, frame = 0
 167              		@ frame_needed = 0, uses_anonymous_args = 0
 168              		@ link register save eliminated.
 169 0000 014B     		ldr	r3, .L24
 170              		@ sp needed
 171 0002 1868     		ldr	r0, [r3]
 172 0004 7047     		bx	lr
 173              	.L25:
 174 0006 C046     		.align	2
 175              	.L24:
 176 0008 00000000 		.word	.LANCHOR0
 177              		.size	_Z6millisv, .-_Z6millisv
 178              		.section	.text._Z13busyWaitUntilm,"ax",%progbits
 179              		.align	1
 180              		.global	_Z13busyWaitUntilm
 181              		.syntax unified
 182              		.code	16
 183              		.thumb_func
 184              		.fpu softvfp
 185              		.type	_Z13busyWaitUntilm, %function
 186              	_Z13busyWaitUntilm:
 187              		@ args = 0, pretend = 0, frame = 0
 188              		@ frame_needed = 0, uses_anonymous_args = 0
 189              		@ link register save eliminated.
 190 0000 024A     		ldr	r2, .L29
 191              	.L27:
 192 0002 1368     		ldr	r3, [r2]
 193 0004 8342     		cmp	r3, r0
 194 0006 FCD3     		bcc	.L27
 195              		@ sp needed
 196 0008 7047     		bx	lr
 197              	.L30:
 198 000a C046     		.align	2
 199              	.L29:
 200 000c 00000000 		.word	.LANCHOR0
 201              		.size	_Z13busyWaitUntilm, .-_Z13busyWaitUntilm
 202              		.section	.text._Z14busyWaitDuringm,"ax",%progbits
 203              		.align	1
 204              		.global	_Z14busyWaitDuringm
 205              		.syntax unified
 206              		.code	16
 207              		.thumb_func
 208              		.fpu softvfp
 209              		.type	_Z14busyWaitDuringm, %function
 210              	_Z14busyWaitDuringm:
 211              		@ args = 0, pretend = 0, frame = 0
 212              		@ frame_needed = 0, uses_anonymous_args = 0
 213 0000 10B5     		push	{r4, lr}
 214 0002 034B     		ldr	r3, .L32
 215              		@ sp needed
 216 0004 1B68     		ldr	r3, [r3]
 217 0006 1818     		adds	r0, r3, r0
 218 0008 FFF7FEFF 		bl	_Z13busyWaitUntilm
 219 000c 10BD     		pop	{r4, pc}
 220              	.L33:
 221 000e C046     		.align	2
 222              	.L32:
 223 0010 00000000 		.word	.LANCHOR0
 224              		.size	_Z14busyWaitDuringm, .-_Z14busyWaitDuringm
 225              		.section	.bss._ZL7gUptime,"aw",%nobits
 226              		.align	2
 227              		.set	.LANCHOR0,. + 0
 228              		.type	_ZL7gUptime, %object
 229              		.size	_ZL7gUptime, 4
 230              	_ZL7gUptime:
 231 0000 00000000 		.space	4
 232              		.section	boot.routine.array,"aw",%progbits
 233              		.align	2
 234              		.type	_ZL20zzUniqueIdentifier_0, %object
 235              		.size	_ZL20zzUniqueIdentifier_0, 4
 236              	_ZL20zzUniqueIdentifier_0:
 237 0000 00000000 		.word	_ZL12startSystickv
 238              		.section	init.routine.array,"aw",%progbits
 239              		.align	2
 240              		.type	_ZL20zzUniqueIdentifier_1, %object
 241              		.size	_ZL20zzUniqueIdentifier_1, 4
 242              	_ZL20zzUniqueIdentifier_1:
 243 0000 00000000 		.word	_ZL24activateSystickInterruptv
 244              		.ident	"GCC: (GNU Tools for Arm Embedded Processors 7-2017-q4-major) 7.2.1 20170904 (release) [ARM
